target datalayout = "e-m:e-p270:32:32-p271:32:32-p272:64:64-i64:64-i128:128-f80:128-n8:16:32:64-S128"
target triple = "x86_64-pc-linux-gnu"

%struct.opj_stream_private = type { ptr, ptr, i64, ptr, ptr, ptr, ptr, ptr, ptr, ptr, ptr, i64, i64, i64, i32 }

; Function Attrs: nounwind uwtable
define hidden i32 @opj_stream_read_seek(ptr noundef %0, i64 noundef %1, ptr noundef %2) #0 {
  %4 = alloca i32, align 4
  %5 = alloca ptr, align 8
  %6 = alloca i64, align 8
  %7 = alloca ptr, align 8
  store ptr %0, ptr %5, align 8, !tbaa !30
  store i64 %1, ptr %6, align 8, !tbaa !28
  store ptr %2, ptr %7, align 8, !tbaa !43
  %8 = load ptr, ptr %5, align 8, !tbaa !30
  %9 = getelementptr inbounds nuw %struct.opj_stream_private, ptr %8, i32 0, i32 7
  %10 = load ptr, ptr %9, align 8, !tbaa !34
  %11 = load ptr, ptr %5, align 8, !tbaa !30
  %12 = getelementptr inbounds nuw %struct.opj_stream_private, ptr %11, i32 0, i32 8
  store ptr %10, ptr %12, align 8, !tbaa !35
  %13 = load ptr, ptr %5, align 8, !tbaa !30
  %14 = getelementptr inbounds nuw %struct.opj_stream_private, ptr %13, i32 0, i32 11
  store i64 0, ptr %14, align 8, !tbaa !45
  %15 = load ptr, ptr %5, align 8, !tbaa !30
  %16 = getelementptr inbounds nuw %struct.opj_stream_private, ptr %15, i32 0, i32 6
  %17 = load ptr, ptr %16, align 8, !tbaa !42
  %18 = load i64, ptr %6, align 8, !tbaa !28
  %19 = load ptr, ptr %5, align 8, !tbaa !30
  %20 = getelementptr inbounds nuw %struct.opj_stream_private, ptr %19, i32 0, i32 0
  %21 = load ptr, ptr %20, align 8, !tbaa !48
  %22 = call i32 %17(i64 noundef %18, ptr noundef %21)
  %23 = icmp ne i32 %22, 0
  br i1 %23, label %29, label %24

24:                                               ; preds = %3
  %25 = load ptr, ptr %5, align 8, !tbaa !30
  %26 = getelementptr inbounds nuw %struct.opj_stream_private, ptr %25, i32 0, i32 14
  %27 = load i32, ptr %26, align 8, !tbaa !36
  %28 = or i32 %27, 4
  store i32 %28, ptr %26, align 8, !tbaa !36
  store i32 0, ptr %4, align 4
  br label %38

29:                                               ; preds = %3
  %30 = load ptr, ptr %5, align 8, !tbaa !30
  %31 = getelementptr inbounds nuw %struct.opj_stream_private, ptr %30, i32 0, i32 14
  %32 = load i32, ptr %31, align 8, !tbaa !36
  %33 = and i32 %32, -5
  store i32 %33, ptr %31, align 8, !tbaa !36
  %34 = load i64, ptr %6, align 8, !tbaa !28
  %35 = load ptr, ptr %5, align 8, !tbaa !30
  %36 = getelementptr inbounds nuw %struct.opj_stream_private, ptr %35, i32 0, i32 12
  store i64 %34, ptr %36, align 8, !tbaa !46
  br label %37

37:                                               ; preds = %29
  store i32 1, ptr %4, align 4
  br label %38

38:                                               ; preds = %37, %24
  %39 = load i32, ptr %4, align 4
  ret i32 %39
}