; Function Attrs: nounwind uwtable
define hidden range(i32 0, 2) i32 @opj_stream_read_seek(ptr noundef captures(none) initializes((64, 72), (88, 96)) %0, i64 noundef %1, ptr readnone captures(none) %2) #5 {
  %4 = getelementptr inbounds nuw i8, ptr %0, i64 56
  %5 = load ptr, ptr %4, align 8, !tbaa !24
  %6 = getelementptr inbounds nuw i8, ptr %0, i64 64
  store ptr %5, ptr %6, align 8, !tbaa !25
  %7 = getelementptr inbounds nuw i8, ptr %0, i64 88
  store i64 0, ptr %7, align 8, !tbaa !33
  %8 = getelementptr inbounds nuw i8, ptr %0, i64 48
  %9 = load ptr, ptr %8, align 8, !tbaa !32
  %10 = load ptr, ptr %0, align 8, !tbaa !36
  %11 = tail call i32 %9(i64 noundef %1, ptr noundef %10) #9
  %.not = icmp eq i32 %11, 0
  %12 = getelementptr inbounds nuw i8, ptr %0, i64 112
  %13 = load i32, ptr %12, align 8, !tbaa !26
  br i1 %.not, label %14, label %16

14:                                               ; preds = %3
  %15 = or i32 %13, 4
  store i32 %15, ptr %12, align 8, !tbaa !26
  br label %19

16:                                               ; preds = %3
  %17 = and i32 %13, -5
  store i32 %17, ptr %12, align 8, !tbaa !26
  %18 = getelementptr inbounds nuw i8, ptr %0, i64 96
  store i64 %1, ptr %18, align 8, !tbaa !34
  br label %19

19:                                               ; preds = %16, %14
  %.0 = phi i32 [ 1, %16 ], [ 0, %14 ]
  ret i32 %.0
}